target datalayout = "e-m:e-p270:32:32-p271:32:32-p272:64:64-i64:64-i128:128-f80:128-n8:16:32:64-S128"
target triple = "x86_64-pc-linux-gnu"

%class.stack = type { ptr, ptr, ptr, ptr }

; Function Attrs: mustprogress uwtable
define linkonce_odr hidden void @_Z13dealloc_svectIcEvPT_(ptr noundef %0) #4 comdat {
  %2 = alloca ptr, align 8
  store ptr %0, ptr %2, align 8, !tbaa !18
  %3 = load ptr, ptr %2, align 8, !tbaa !18
  %4 = icmp eq ptr %3, null
  br i1 %4, label %5, label %6

5:                                                ; preds = %1
  br label %8

6:                                                ; preds = %1
  %7 = load ptr, ptr %2, align 8, !tbaa !18
  call void @_ZN6memory10deallocateEPv(ptr noundef %7)
  br label %8

8:                                                ; preds = %6, %5
  ret void
}

; Function Attrs: inlinehint mustprogress nounwind uwtable
define linkonce_odr hidden noundef zeroext i1 @_Z12external_ptrm(i64 noundef %0) #9 comdat {
  %2 = alloca i64, align 8
  store i64 %0, ptr %2, align 8, !tbaa !14
  %3 = load i64, ptr %2, align 8, !tbaa !14
  %4 = and i64 %3, 1
  %5 = icmp ne i64 %4, 0
  ret i1 %5
}

; Function Attrs: inlinehint mustprogress nounwind uwtable
define linkonce_odr hidden noundef ptr @_Z19end_of_default_pagePc(ptr noundef %0) #9 comdat {
  %2 = alloca ptr, align 8
  store ptr %0, ptr %2, align 8, !tbaa !18
  %3 = load ptr, ptr %2, align 8, !tbaa !18
  %4 = getelementptr inbounds nuw i8, ptr %3, i64 8184
  ret ptr %4
}

; Function Attrs: inlinehint mustprogress nounwind uwtable
define linkonce_odr hidden noundef ptr @_Z8mark2ptrm(i64 noundef %0) #9 comdat {
  %2 = alloca i64, align 8
  store i64 %0, ptr %2, align 8, !tbaa !14
  %3 = load i64, ptr %2, align 8, !tbaa !14
  %4 = and i64 %3, -2
  %5 = inttoptr i64 %4 to ptr
  ret ptr %5
}

; Function Attrs: inlinehint mustprogress nounwind uwtable
define linkonce_odr hidden noundef ptr @_Z9prev_pagePc(ptr noundef %0) #9 comdat {
  %2 = alloca ptr, align 8
  %3 = alloca i64, align 8
  store ptr %0, ptr %2, align 8, !tbaa !18
  call void @llvm.lifetime.start.p0(i64 8, ptr %3) #3
  %4 = load ptr, ptr %2, align 8, !tbaa !18
  %5 = getelementptr inbounds i64, ptr %4, i64 -1
  %6 = load i64, ptr %5, align 8, !tbaa !14
  store i64 %6, ptr %3, align 8, !tbaa !14
  %7 = load i64, ptr %3, align 8, !tbaa !14
  %8 = and i64 %7, -2
  %9 = inttoptr i64 %8 to ptr
  call void @llvm.lifetime.end.p0(i64 8, ptr %3) #3
  ret ptr %9
}

; Function Attrs: inlinehint mustprogress nounwind uwtable
define linkonce_odr hidden noundef i64 @_ZNK5stack8top_markEv(ptr noundef nonnull align 8 dereferenceable(32) %0) #9 comdat align 2 {
  %2 = alloca ptr, align 8
  store ptr %0, ptr %2, align 8, !tbaa !3
  %3 = load ptr, ptr %2, align 8
  %4 = getelementptr inbounds nuw %class.stack, ptr %3, i32 0, i32 1
  %5 = load ptr, ptr %4, align 8, !tbaa !11
  %6 = getelementptr inbounds i64, ptr %5, i64 -1
  %7 = load i64, ptr %6, align 8, !tbaa !14
  ret i64 %7
}

; Function Attrs: mustprogress uwtable
define hidden void @_ZN5stack10deallocateEv(ptr noundef nonnull align 8 dereferenceable(32) %0) #4 align 2 {
  %2 = alloca ptr, align 8
  %3 = alloca i64, align 8
  %4 = alloca ptr, align 8
  store ptr %0, ptr %2, align 8, !tbaa !3
  %5 = load ptr, ptr %2, align 8
  call void @llvm.lifetime.start.p0(i64 8, ptr %3) #3
  %6 = call noundef i64 @_ZNK5stack8top_markEv(ptr noundef nonnull align 8 dereferenceable(32) %5)
  store i64 %6, ptr %3, align 8, !tbaa !14
  %7 = getelementptr inbounds nuw %class.stack, ptr %5, i32 0, i32 1
  %8 = load ptr, ptr %7, align 8, !tbaa !11
  %9 = getelementptr inbounds nuw %class.stack, ptr %5, i32 0, i32 0
  %10 = load ptr, ptr %9, align 8, !tbaa !8
  %11 = getelementptr inbounds nuw i8, ptr %10, i64 8
  %12 = icmp eq ptr %8, %11
  br i1 %12, label %13, label %29

13:                                               ; preds = %1
  call void @llvm.lifetime.start.p0(i64 8, ptr %4) #3
  %14 = getelementptr inbounds nuw %class.stack, ptr %5, i32 0, i32 0
  %15 = load ptr, ptr %14, align 8, !tbaa !8
  %16 = call noundef ptr @_Z9prev_pagePc(ptr noundef %15)
  store ptr %16, ptr %4, align 8, !tbaa !18
  %17 = getelementptr inbounds nuw %class.stack, ptr %5, i32 0, i32 0
  %18 = load ptr, ptr %17, align 8, !tbaa !8
  %19 = getelementptr inbounds nuw %class.stack, ptr %5, i32 0, i32 3
  call void @_Z12recycle_pagePcRS_(ptr noundef %18, ptr noundef nonnull align 8 dereferenceable(8) %19)
  %20 = load ptr, ptr %4, align 8, !tbaa !18
  %21 = getelementptr inbounds nuw %class.stack, ptr %5, i32 0, i32 0
  store ptr %20, ptr %21, align 8, !tbaa !8
  %22 = load i64, ptr %3, align 8, !tbaa !14
  %23 = call noundef ptr @_Z8mark2ptrm(i64 noundef %22)
  %24 = getelementptr inbounds nuw %class.stack, ptr %5, i32 0, i32 1
  store ptr %23, ptr %24, align 8, !tbaa !11
  %25 = getelementptr inbounds nuw %class.stack, ptr %5, i32 0, i32 0
  %26 = load ptr, ptr %25, align 8, !tbaa !8
  %27 = call noundef ptr @_Z19end_of_default_pagePc(ptr noundef %26)
  %28 = getelementptr inbounds nuw %class.stack, ptr %5, i32 0, i32 2
  store ptr %27, ptr %28, align 8, !tbaa !12
  call void @llvm.lifetime.end.p0(i64 8, ptr %4) #3
  br label %33

29:                                               ; preds = %1
  %30 = load i64, ptr %3, align 8, !tbaa !14
  %31 = call noundef ptr @_Z8mark2ptrm(i64 noundef %30)
  %32 = getelementptr inbounds nuw %class.stack, ptr %5, i32 0, i32 1
  store ptr %31, ptr %32, align 8, !tbaa !11
  br label %33

33:                                               ; preds = %29, %13
  %34 = load i64, ptr %3, align 8, !tbaa !14
  %35 = call noundef zeroext i1 @_Z12external_ptrm(i64 noundef %34)
  br i1 %35, label %36, label %41

36:                                               ; preds = %33
  %37 = getelementptr inbounds nuw %class.stack, ptr %5, i32 0, i32 1
  %38 = load ptr, ptr %37, align 8, !tbaa !11
  %39 = getelementptr inbounds ptr, ptr %38, i64 0
  %40 = load ptr, ptr %39, align 8, !tbaa !18
  call void @_Z13dealloc_svectIcEvPT_(ptr noundef %40)
  br label %41

41:                                               ; preds = %36, %33
  call void @llvm.lifetime.end.p0(i64 8, ptr %3) #3
  ret void
}

; Function Attrs: mustprogress nounwind uwtable
define linkonce_odr hidden noundef zeroext i1 @_ZNK5stack5emptyEv(ptr noundef nonnull align 8 dereferenceable(32) %0) #6 comdat align 2 {
  %2 = alloca ptr, align 8
  store ptr %0, ptr %2, align 8, !tbaa !3
  %3 = load ptr, ptr %2, align 8
  %4 = getelementptr inbounds nuw %class.stack, ptr %3, i32 0, i32 1
  %5 = load ptr, ptr %4, align 8, !tbaa !11
  %6 = getelementptr inbounds i64, ptr %5, i64 -1
  %7 = load i64, ptr %6, align 8, !tbaa !14
  %8 = icmp eq i64 %7, 0
  ret i1 %8
}

; Function Attrs: mustprogress uwtable
define hidden void @_ZN5stack5resetEv(ptr noundef nonnull align 8 dereferenceable(32) %0) #4 align 2 {
  %2 = alloca ptr, align 8
  store ptr %0, ptr %2, align 8, !tbaa !3
  %3 = load ptr, ptr %2, align 8
  br label %4

4:                                                ; preds = %7, %1
  %5 = call noundef zeroext i1 @_ZNK5stack5emptyEv(ptr noundef nonnull align 8 dereferenceable(32) %3)
  %6 = xor i1 %5, true
  br i1 %6, label %7, label %8

7:                                                ; preds = %4
  call void @_ZN5stack10deallocateEv(ptr noundef nonnull align 8 dereferenceable(32) %3)
  br label %4, !llvm.loop !16

8:                                                ; preds = %4
  ret void
}