; Function Attrs: mustprogress uwtable
define hidden void @_ZN5stack5resetEv(ptr noundef nonnull align 8 dereferenceable(32) %0) local_unnamed_addr #3 align 2 {
  %2 = getelementptr inbounds nuw i8, ptr %0, i64 8
  %3 = load ptr, ptr %2, align 8, !tbaa !12
  %4 = getelementptr inbounds i8, ptr %3, i64 -8
  %5 = load i64, ptr %4, align 8, !tbaa !10
  %6 = icmp eq i64 %5, 0
  br i1 %6, label %._crit_edge, label %.lr.ph

.lr.ph:                                           ; preds = %1
  %7 = getelementptr inbounds nuw i8, ptr %0, i64 24
  %8 = getelementptr inbounds nuw i8, ptr %0, i64 16
  br label %9

9:                                                ; preds = %.lr.ph, %_ZN5stack10deallocateEv.exit
  %10 = phi i64 [ %5, %.lr.ph ], [ %30, %_ZN5stack10deallocateEv.exit ]
  %11 = phi ptr [ %3, %.lr.ph ], [ %28, %_ZN5stack10deallocateEv.exit ]
  %12 = load ptr, ptr %0, align 8, !tbaa !3
  %13 = getelementptr inbounds nuw i8, ptr %12, i64 8
  %14 = icmp eq ptr %11, %13
  br i1 %14, label %15, label %21

15:                                               ; preds = %9
  %16 = getelementptr inbounds i8, ptr %12, i64 -8
  %17 = load i64, ptr %16, align 8, !tbaa !10
  %18 = and i64 %17, -2
  %19 = inttoptr i64 %18 to ptr
  tail call void @_Z12recycle_pagePcRS_(ptr noundef %12, ptr noundef nonnull align 8 dereferenceable(8) %7)
  store ptr %19, ptr %0, align 8, !tbaa !3
  %20 = getelementptr inbounds nuw i8, ptr %19, i64 8184
  store ptr %20, ptr %8, align 8, !tbaa !9
  br label %21

21:                                               ; preds = %15, %9
  %.in.i = and i64 %10, -2
  %22 = inttoptr i64 %.in.i to ptr
  store ptr %22, ptr %2, align 8, !tbaa !12
  %23 = and i64 %10, 1
  %.not.i = icmp eq i64 %23, 0
  br i1 %.not.i, label %_ZN5stack10deallocateEv.exit, label %24

24:                                               ; preds = %21
  %25 = load ptr, ptr %22, align 8, !tbaa !13
  %26 = icmp eq ptr %25, null
  br i1 %26, label %_ZN5stack10deallocateEv.exit, label %27

27:                                               ; preds = %24
  tail call void @_ZN6memory10deallocateEPv(ptr noundef nonnull %25)
  %.pre = load ptr, ptr %2, align 8, !tbaa !12
  br label %_ZN5stack10deallocateEv.exit

_ZN5stack10deallocateEv.exit:                     ; preds = %21, %24, %27
  %28 = phi ptr [ %22, %21 ], [ %22, %24 ], [ %.pre, %27 ]
  %29 = getelementptr inbounds i8, ptr %28, i64 -8
  %30 = load i64, ptr %29, align 8, !tbaa !10
  %31 = icmp eq i64 %30, 0
  br i1 %31, label %._crit_edge, label %9, !llvm.loop !14

._crit_edge:                                      ; preds = %_ZN5stack10deallocateEv.exit, %1
  ret void
}